target datalayout = "e-m:e-p270:32:32-p271:32:32-p272:64:64-i64:64-i128:128-f80:128-n8:16:32:64-S128"
target triple = "x86_64-pc-linux-gnu"

%"struct.std::nothrow_t" = type { i8 }
%"struct.zmq::options_t" = type { i32, i32, i64, i8, [256 x i8], i32, i32, i32, i32, i32, i32, i32, i32, i8, %"struct.zmq::atomic_value_t", i32, i32, i32, i32, i32, i32, i64, i32, i32, i8, i32, i8, i8, i8, i8, i8, %"class.std::__cxx11::basic_string", %"class.std::__cxx11::basic_string", %"class.std::__cxx11::basic_string", i32, i32, i32, i32, %"class.std::vector", %"class.std::set", %"class.std::set", %"class.std::set.6", i32, i32, %"class.std::__cxx11::basic_string", %"class.std::__cxx11::basic_string", %"class.std::__cxx11::basic_string", [32 x i8], [32 x i8], [32 x i8], %"class.std::__cxx11::basic_string", %"class.std::__cxx11::basic_string", i32, i32, i8, i32, i8, i32, i8, i16, i32, i32, i32, %"class.std::__cxx11::basic_string", i8, i8, i8, i32, i32, i8, i32, %"class.std::map", i32, %"class.std::__cxx11::basic_string", %"class.std::__cxx11::basic_string", %"class.std::__cxx11::basic_string", %"class.std::__cxx11::basic_string", i8, %"class.std::vector.17", i8, %"class.std::vector.17", i8, %"class.std::vector.17", i8, i32, i8, i32, i32, i32, i32, i32, i8, i32 }
%"struct.zmq::atomic_value_t" = type { %"struct.std::atomic" }
%"struct.std::atomic" = type { %"struct.std::__atomic_base" }
%"struct.std::__atomic_base" = type { i32 }
%"class.std::vector" = type { %"struct.std::_Vector_base" }
%"struct.std::_Vector_base" = type { %"struct.std::_Vector_base<zmq::tcp_address_mask_t, std::allocator<zmq::tcp_address_mask_t>>::_Vector_impl" }
%"struct.std::_Vector_base<zmq::tcp_address_mask_t, std::allocator<zmq::tcp_address_mask_t>>::_Vector_impl" = type { %"struct.std::_Vector_base<zmq::tcp_address_mask_t, std::allocator<zmq::tcp_address_mask_t>>::_Vector_impl_data" }
%"struct.std::_Vector_base<zmq::tcp_address_mask_t, std::allocator<zmq::tcp_address_mask_t>>::_Vector_impl_data" = type { ptr, ptr, ptr }
%"class.std::set" = type { %"class.std::_Rb_tree" }
%"class.std::_Rb_tree" = type { %"struct.std::_Rb_tree<unsigned int, unsigned int, std::_Identity<unsigned int>, std::less<unsigned int>>::_Rb_tree_impl" }
%"struct.std::_Rb_tree<unsigned int, unsigned int, std::_Identity<unsigned int>, std::less<unsigned int>>::_Rb_tree_impl" = type { [8 x i8], %"struct.std::_Rb_tree_header" }
%"struct.std::_Rb_tree_header" = type { %"struct.std::_Rb_tree_node_base", i64 }
%"struct.std::_Rb_tree_node_base" = type { i32, ptr, ptr, ptr }
%"class.std::set.6" = type { %"class.std::_Rb_tree.7" }
%"class.std::_Rb_tree.7" = type { %"struct.std::_Rb_tree<int, int, std::_Identity<int>, std::less<int>>::_Rb_tree_impl" }
%"struct.std::_Rb_tree<int, int, std::_Identity<int>, std::less<int>>::_Rb_tree_impl" = type { [8 x i8], %"struct.std::_Rb_tree_header" }
%"class.std::map" = type { %"class.std::_Rb_tree.12" }
%"class.std::_Rb_tree.12" = type { %"struct.std::_Rb_tree<std::__cxx11::basic_string<char>, std::pair<const std::__cxx11::basic_string<char>, std::__cxx11::basic_string<char>>, std::_Select1st<std::pair<const std::__cxx11::basic_string<char>, std::__cxx11::basic_string<char>>>, std::less<std::__cxx11::basic_string<char>>>::_Rb_tree_impl" }
%"struct.std::_Rb_tree<std::__cxx11::basic_string<char>, std::pair<const std::__cxx11::basic_string<char>, std::__cxx11::basic_string<char>>, std::_Select1st<std::pair<const std::__cxx11::basic_string<char>, std::__cxx11::basic_string<char>>>, std::less<std::__cxx11::basic_string<char>>>::_Rb_tree_impl" = type { [8 x i8], %"struct.std::_Rb_tree_header" }
%"class.std::__cxx11::basic_string" = type { %"struct.std::__cxx11::basic_string<char>::_Alloc_hider", i64, %union.anon }
%"struct.std::__cxx11::basic_string<char>::_Alloc_hider" = type { ptr }
%union.anon = type { i64, [8 x i8] }
%"class.std::vector.17" = type { %"struct.std::_Vector_base.18" }
%"struct.std::_Vector_base.18" = type { %"struct.std::_Vector_base<unsigned char, std::allocator<unsigned char>>::_Vector_impl" }
%"struct.std::_Vector_base<unsigned char, std::allocator<unsigned char>>::_Vector_impl" = type { %"struct.std::_Vector_base<unsigned char, std::allocator<unsigned char>>::_Vector_impl_data" }
%"struct.std::_Vector_base<unsigned char, std::allocator<unsigned char>>::_Vector_impl_data" = type { ptr, ptr, ptr }

@_ZSt7nothrow = external global %"struct.std::nothrow_t", align 1
@stderr = external global ptr, align 8
@.str = private unnamed_addr constant [36 x i8] c"FATAL ERROR: OUT OF MEMORY (%s:%d)\0A\00", align 1
@.str.1 = private unnamed_addr constant [112 x i8] c"generated/home/dtcxzyw/WorkSpace/Projects/compilers/llvm-opt-benchmark/bench/libzmq/libzmq/src/session_base.cpp\00", align 1
@.str.2 = private unnamed_addr constant [27 x i8] c"FATAL ERROR: OUT OF MEMORY\00", align 1
@_ZN3zmq14session_base_tC1EPNS_11io_thread_tEbPNS_13socket_base_tERKNS_9options_tEPNS_9address_tE = unnamed_addr alias void (ptr, ptr, i1, ptr, ptr, ptr), ptr @_ZN3zmq14session_base_tC2EPNS_11io_thread_tEbPNS_13socket_base_tERKNS_9options_tEPNS_9address_tE
@_ZN3zmq19hello_msg_session_tC1EPNS_11io_thread_tEbPNS_13socket_base_tERKNS_9options_tEPNS_9address_tE = unnamed_addr alias void (ptr, ptr, i1, ptr, ptr, ptr), ptr @_ZN3zmq19hello_msg_session_tC2EPNS_11io_thread_tEbPNS_13socket_base_tERKNS_9options_tEPNS_9address_tE

; Function Attrs: mustprogress nounwind uwtable
define linkonce_odr noundef i64 @_ZNKSt6vectorIhSaIhEE4sizeEv(ptr noundef nonnull align 8 dereferenceable(24) %0) #5 comdat align 2 {
  %2 = alloca ptr, align 8
  store ptr %0, ptr %2, align 8, !tbaa !63
  %3 = load ptr, ptr %2, align 8
  %4 = getelementptr inbounds nuw %"struct.std::_Vector_base.18", ptr %3, i32 0, i32 0
  %5 = getelementptr inbounds nuw %"struct.std::_Vector_base<unsigned char, std::allocator<unsigned char>>::_Vector_impl_data", ptr %4, i32 0, i32 1
  %6 = load ptr, ptr %5, align 8, !tbaa !65
  %7 = getelementptr inbounds nuw %"struct.std::_Vector_base.18", ptr %3, i32 0, i32 0
  %8 = getelementptr inbounds nuw %"struct.std::_Vector_base<unsigned char, std::allocator<unsigned char>>::_Vector_impl_data", ptr %7, i32 0, i32 0
  %9 = load ptr, ptr %8, align 8, !tbaa !66
  %10 = ptrtoint ptr %6 to i64
  %11 = ptrtoint ptr %9 to i64
  %12 = sub i64 %10, %11
  ret i64 %12
}

; Function Attrs: mustprogress uwtable
define noundef ptr @_ZN3zmq14session_base_t6createEPNS_11io_thread_tEbPNS_13socket_base_tERKNS_9options_tEPNS_9address_tE(ptr noundef %0, i1 noundef zeroext %1, ptr noundef %2, ptr noundef nonnull align 8 dereferenceable(1336) %3, ptr noundef %4) #0 align 2 personality ptr @__gxx_personality_v0 {
  %6 = alloca ptr, align 8
  %7 = alloca ptr, align 8
  %8 = alloca i8, align 1
  %9 = alloca ptr, align 8
  %10 = alloca ptr, align 8
  %11 = alloca ptr, align 8
  %12 = alloca ptr, align 8
  %13 = alloca ptr, align 8
  %14 = alloca i1, align 1
  %15 = alloca ptr, align 8
  %16 = alloca i32, align 4
  %17 = alloca ptr, align 8
  %18 = alloca i1, align 1
  %19 = alloca ptr, align 8
  %20 = alloca i1, align 1
  %21 = alloca ptr, align 8
  %22 = alloca i1, align 1
  %23 = alloca ptr, align 8
  %24 = alloca i1, align 1
  %25 = alloca i32, align 4
  store ptr %0, ptr %7, align 8, !tbaa !3
  %26 = zext i1 %1 to i8
  store i8 %26, ptr %8, align 1, !tbaa !8
  store ptr %2, ptr %9, align 8, !tbaa !10
  store ptr %3, ptr %10, align 8, !tbaa !12
  store ptr %4, ptr %11, align 8, !tbaa !14
  call void @llvm.lifetime.start.p0(i64 8, ptr %12) #21
  store ptr null, ptr %12, align 8, !tbaa !16
  %27 = load ptr, ptr %10, align 8, !tbaa !12
  %28 = getelementptr inbounds nuw %"struct.zmq::options_t", ptr %27, i32 0, i32 13
  %29 = load i8, ptr %28, align 4, !tbaa !18
  %30 = sext i8 %29 to i32
  switch i32 %30, label %147 [
    i32 3, label %31
    i32 14, label %52
    i32 15, label %73
    i32 5, label %94
    i32 4, label %94
    i32 6, label %94
    i32 1, label %94
    i32 9, label %94
    i32 2, label %94
    i32 10, label %94
    i32 8, label %94
    i32 7, label %94
    i32 0, label %94
    i32 11, label %94
    i32 12, label %94
    i32 13, label %94
    i32 16, label %94
    i32 17, label %94
    i32 18, label %94
    i32 19, label %94
    i32 20, label %94
  ]

31:                                               ; preds = %5
  %32 = call noalias noundef ptr @_ZnwmRKSt9nothrow_t(i64 noundef 1632, ptr noundef nonnull align 1 dereferenceable(1) @_ZSt7nothrow) #22
  %33 = icmp eq ptr %32, null
  store i1 false, ptr %14, align 1
  br i1 %33, label %42, label %34

34:                                               ; preds = %31
  store ptr %32, ptr %13, align 8
  store i1 true, ptr %14, align 1
  %35 = load ptr, ptr %7, align 8, !tbaa !3
  %36 = load i8, ptr %8, align 1, !tbaa !8, !range !57, !noundef !58
  %37 = trunc i8 %36 to i1
  %38 = load ptr, ptr %9, align 8, !tbaa !10
  %39 = load ptr, ptr %10, align 8, !tbaa !12
  %40 = load ptr, ptr %11, align 8, !tbaa !14
  invoke void @_ZN3zmq13req_session_tC1EPNS_11io_thread_tEbPNS_13socket_base_tERKNS_9options_tEPNS_9address_tE(ptr noundef nonnull align 8 dereferenceable(1632) %32, ptr noundef %35, i1 noundef zeroext %37, ptr noundef %38, ptr noundef nonnull align 8 dereferenceable(1336) %39, ptr noundef %40)
          to label %41 unwind label %44

41:                                               ; preds = %34
  br label %42

42:                                               ; preds = %41, %31
  %43 = phi ptr [ %32, %41 ], [ null, %31 ]
  store ptr %43, ptr %12, align 8, !tbaa !16
  br label %149

44:                                               ; preds = %34
  %45 = landingpad { ptr, i32 }
          cleanup
  %46 = extractvalue { ptr, i32 } %45, 0
  store ptr %46, ptr %15, align 8
  %47 = extractvalue { ptr, i32 } %45, 1
  store i32 %47, ptr %16, align 4
  %48 = load i1, ptr %14, align 1
  br i1 %48, label %49, label %51

49:                                               ; preds = %44
  %50 = load ptr, ptr %13, align 8
  call void @_ZdlPvRKSt9nothrow_t(ptr noundef %50, ptr noundef nonnull align 1 dereferenceable(1) @_ZSt7nothrow) #23
  br label %51

51:                                               ; preds = %49, %44
  br label %168

52:                                               ; preds = %5
  %53 = call noalias noundef ptr @_ZnwmRKSt9nothrow_t(i64 noundef 1696, ptr noundef nonnull align 1 dereferenceable(1) @_ZSt7nothrow) #22
  %54 = icmp eq ptr %53, null
  store i1 false, ptr %18, align 1
  br i1 %54, label %63, label %55

55:                                               ; preds = %52
  store ptr %53, ptr %17, align 8
  store i1 true, ptr %18, align 1
  %56 = load ptr, ptr %7, align 8, !tbaa !3
  %57 = load i8, ptr %8, align 1, !tbaa !8, !range !57, !noundef !58
  %58 = trunc i8 %57 to i1
  %59 = load ptr, ptr %9, align 8, !tbaa !10
  %60 = load ptr, ptr %10, align 8, !tbaa !12
  %61 = load ptr, ptr %11, align 8, !tbaa !14
  invoke void @_ZN3zmq15radio_session_tC1EPNS_11io_thread_tEbPNS_13socket_base_tERKNS_9options_tEPNS_9address_tE(ptr noundef nonnull align 8 dereferenceable(1696) %53, ptr noundef %56, i1 noundef zeroext %58, ptr noundef %59, ptr noundef nonnull align 8 dereferenceable(1336) %60, ptr noundef %61)
          to label %62 unwind label %65

62:                                               ; preds = %55
  br label %63

63:                                               ; preds = %62, %52
  %64 = phi ptr [ %53, %62 ], [ null, %52 ]
  store ptr %64, ptr %12, align 8, !tbaa !16
  br label %149

65:                                               ; preds = %55
  %66 = landingpad { ptr, i32 }
          cleanup
  %67 = extractvalue { ptr, i32 } %66, 0
  store ptr %67, ptr %15, align 8
  %68 = extractvalue { ptr, i32 } %66, 1
  store i32 %68, ptr %16, align 4
  %69 = load i1, ptr %18, align 1
  br i1 %69, label %70, label %72

70:                                               ; preds = %65
  %71 = load ptr, ptr %17, align 8
  call void @_ZdlPvRKSt9nothrow_t(ptr noundef %71, ptr noundef nonnull align 1 dereferenceable(1) @_ZSt7nothrow) #23
  br label %72

72:                                               ; preds = %70, %65
  br label %168

73:                                               ; preds = %5
  %74 = call noalias noundef ptr @_ZnwmRKSt9nothrow_t(i64 noundef 1696, ptr noundef nonnull align 1 dereferenceable(1) @_ZSt7nothrow) #22
  %75 = icmp eq ptr %74, null
  store i1 false, ptr %20, align 1
  br i1 %75, label %84, label %76

76:                                               ; preds = %73
  store ptr %74, ptr %19, align 8
  store i1 true, ptr %20, align 1
  %77 = load ptr, ptr %7, align 8, !tbaa !3
  %78 = load i8, ptr %8, align 1, !tbaa !8, !range !57, !noundef !58
  %79 = trunc i8 %78 to i1
  %80 = load ptr, ptr %9, align 8, !tbaa !10
  %81 = load ptr, ptr %10, align 8, !tbaa !12
  %82 = load ptr, ptr %11, align 8, !tbaa !14
  invoke void @_ZN3zmq14dish_session_tC1EPNS_11io_thread_tEbPNS_13socket_base_tERKNS_9options_tEPNS_9address_tE(ptr noundef nonnull align 8 dereferenceable(1696) %74, ptr noundef %77, i1 noundef zeroext %79, ptr noundef %80, ptr noundef nonnull align 8 dereferenceable(1336) %81, ptr noundef %82)
          to label %83 unwind label %86

83:                                               ; preds = %76
  br label %84

84:                                               ; preds = %83, %73
  %85 = phi ptr [ %74, %83 ], [ null, %73 ]
  store ptr %85, ptr %12, align 8, !tbaa !16
  br label %149

86:                                               ; preds = %76
  %87 = landingpad { ptr, i32 }
          cleanup
  %88 = extractvalue { ptr, i32 } %87, 0
  store ptr %88, ptr %15, align 8
  %89 = extractvalue { ptr, i32 } %87, 1
  store i32 %89, ptr %16, align 4
  %90 = load i1, ptr %20, align 1
  br i1 %90, label %91, label %93

91:                                               ; preds = %86
  %92 = load ptr, ptr %19, align 8
  call void @_ZdlPvRKSt9nothrow_t(ptr noundef %92, ptr noundef nonnull align 1 dereferenceable(1) @_ZSt7nothrow) #23
  br label %93

93:                                               ; preds = %91, %86
  br label %168

94:                                               ; preds = %5, %5, %5, %5, %5, %5, %5, %5, %5, %5, %5, %5, %5, %5, %5, %5, %5, %5
  %95 = load ptr, ptr %10, align 8, !tbaa !12
  %96 = getelementptr inbounds nuw %"struct.zmq::options_t", ptr %95, i32 0, i32 79
  %97 = load i8, ptr %96, align 8, !tbaa !59, !range !57, !noundef !58
  %98 = trunc i8 %97 to i1
  br i1 %98, label %99, label %125

99:                                               ; preds = %94
  %100 = load ptr, ptr %10, align 8, !tbaa !12
  %101 = getelementptr inbounds nuw %"struct.zmq::options_t", ptr %100, i32 0, i32 78
  %102 = call noundef i64 @_ZNKSt6vectorIhSaIhEE4sizeEv(ptr noundef nonnull align 8 dereferenceable(24) %101) #21
  %103 = icmp ugt i64 %102, 0
  br i1 %103, label %104, label %125

104:                                              ; preds = %99
  %105 = call noalias noundef ptr @_ZnwmRKSt9nothrow_t(i64 noundef 1632, ptr noundef nonnull align 1 dereferenceable(1) @_ZSt7nothrow) #22
  %106 = icmp eq ptr %105, null
  store i1 false, ptr %22, align 1
  br i1 %106, label %115, label %107

107:                                              ; preds = %104
  store ptr %105, ptr %21, align 8
  store i1 true, ptr %22, align 1
  %108 = load ptr, ptr %7, align 8, !tbaa !3
  %109 = load i8, ptr %8, align 1, !tbaa !8, !range !57, !noundef !58
  %110 = trunc i8 %109 to i1
  %111 = load ptr, ptr %9, align 8, !tbaa !10
  %112 = load ptr, ptr %10, align 8, !tbaa !12
  %113 = load ptr, ptr %11, align 8, !tbaa !14
  invoke void @_ZN3zmq19hello_msg_session_tC1EPNS_11io_thread_tEbPNS_13socket_base_tERKNS_9options_tEPNS_9address_tE(ptr noundef nonnull align 8 dereferenceable(1632) %105, ptr noundef %108, i1 noundef zeroext %110, ptr noundef %111, ptr noundef nonnull align 8 dereferenceable(1336) %112, ptr noundef %113)
          to label %114 unwind label %117

114:                                              ; preds = %107
  br label %115

115:                                              ; preds = %114, %104
  %116 = phi ptr [ %105, %114 ], [ null, %104 ]
  store ptr %116, ptr %12, align 8, !tbaa !16
  br label %146

117:                                              ; preds = %107
  %118 = landingpad { ptr, i32 }
          cleanup
  %119 = extractvalue { ptr, i32 } %118, 0
  store ptr %119, ptr %15, align 8
  %120 = extractvalue { ptr, i32 } %118, 1
  store i32 %120, ptr %16, align 4
  %121 = load i1, ptr %22, align 1
  br i1 %121, label %122, label %124

122:                                              ; preds = %117
  %123 = load ptr, ptr %21, align 8
  call void @_ZdlPvRKSt9nothrow_t(ptr noundef %123, ptr noundef nonnull align 1 dereferenceable(1) @_ZSt7nothrow) #23
  br label %124

124:                                              ; preds = %122, %117
  br label %168

125:                                              ; preds = %99, %94
  %126 = call noalias noundef ptr @_ZnwmRKSt9nothrow_t(i64 noundef 1624, ptr noundef nonnull align 1 dereferenceable(1) @_ZSt7nothrow) #22
  %127 = icmp eq ptr %126, null
  store i1 false, ptr %24, align 1
  br i1 %127, label %136, label %128

128:                                              ; preds = %125
  store ptr %126, ptr %23, align 8
  store i1 true, ptr %24, align 1
  %129 = load ptr, ptr %7, align 8, !tbaa !3
  %130 = load i8, ptr %8, align 1, !tbaa !8, !range !57, !noundef !58
  %131 = trunc i8 %130 to i1
  %132 = load ptr, ptr %9, align 8, !tbaa !10
  %133 = load ptr, ptr %10, align 8, !tbaa !12
  %134 = load ptr, ptr %11, align 8, !tbaa !14
  invoke void @_ZN3zmq14session_base_tC1EPNS_11io_thread_tEbPNS_13socket_base_tERKNS_9options_tEPNS_9address_tE(ptr noundef nonnull align 8 dereferenceable(1624) %126, ptr noundef %129, i1 noundef zeroext %131, ptr noundef %132, ptr noundef nonnull align 8 dereferenceable(1336) %133, ptr noundef %134)
          to label %135 unwind label %138

135:                                              ; preds = %128
  br label %136

136:                                              ; preds = %135, %125
  %137 = phi ptr [ %126, %135 ], [ null, %125 ]
  store ptr %137, ptr %12, align 8, !tbaa !16
  br label %146

138:                                              ; preds = %128
  %139 = landingpad { ptr, i32 }
          cleanup
  %140 = extractvalue { ptr, i32 } %139, 0
  store ptr %140, ptr %15, align 8
  %141 = extractvalue { ptr, i32 } %139, 1
  store i32 %141, ptr %16, align 4
  %142 = load i1, ptr %24, align 1
  br i1 %142, label %143, label %145

143:                                              ; preds = %138
  %144 = load ptr, ptr %23, align 8
  call void @_ZdlPvRKSt9nothrow_t(ptr noundef %144, ptr noundef nonnull align 1 dereferenceable(1) @_ZSt7nothrow) #23
  br label %145

145:                                              ; preds = %143, %138
  br label %168

146:                                              ; preds = %136, %115
  br label %149

147:                                              ; preds = %5
  %148 = call ptr @__errno_location() #24
  store i32 22, ptr %148, align 4, !tbaa !60
  store ptr null, ptr %6, align 8
  store i32 1, ptr %25, align 4
  br label %166

149:                                              ; preds = %146, %84, %63, %42
  br label %150

150:                                              ; preds = %149
  %151 = load ptr, ptr %12, align 8, !tbaa !16
  %152 = icmp ne ptr %151, null
  %153 = xor i1 %152, true
  %154 = zext i1 %153 to i64
  %155 = call i64 @llvm.expect.i64(i64 %154, i64 0)
  %156 = icmp ne i64 %155, 0
  br i1 %156, label %157, label %162

157:                                              ; preds = %150
  %158 = load ptr, ptr @stderr, align 8, !tbaa !61
  %159 = call i32 (ptr, ptr, ...) @fprintf(ptr noundef %158, ptr noundef @.str, ptr noundef @.str.1, i32 noundef 84) #21
  %160 = load ptr, ptr @stderr, align 8, !tbaa !61
  %161 = call i32 @fflush(ptr noundef %160)
  call void @_ZN3zmq9zmq_abortEPKc(ptr noundef @.str.2)
  br label %162

162:                                              ; preds = %157, %150
  br label %163

163:                                              ; preds = %162
  br label %164

164:                                              ; preds = %163
  %165 = load ptr, ptr %12, align 8, !tbaa !16
  store ptr %165, ptr %6, align 8
  store i32 1, ptr %25, align 4
  br label %166

166:                                              ; preds = %164, %147
  call void @llvm.lifetime.end.p0(i64 8, ptr %12) #21
  %167 = load ptr, ptr %6, align 8
  ret ptr %167

168:                                              ; preds = %145, %124, %93, %72, %51
  call void @llvm.lifetime.end.p0(i64 8, ptr %12) #21
  br label %169

169:                                              ; preds = %168
  %170 = load ptr, ptr %15, align 8
  %171 = load i32, ptr %16, align 4
  %172 = insertvalue { ptr, i32 } poison, ptr %170, 0
  %173 = insertvalue { ptr, i32 } %172, i32 %171, 1
  resume { ptr, i32 } %173
}