; Function Attrs: mustprogress uwtable
define noundef ptr @_ZN3zmq14session_base_t6createEPNS_11io_thread_tEbPNS_13socket_base_tERKNS_9options_tEPNS_9address_tE(ptr noundef %0, i1 noundef zeroext %1, ptr noundef %2, ptr noundef nonnull align 8 dereferenceable(1336) %3, ptr noundef %4) local_unnamed_addr #0 align 2 personality ptr @__gxx_personality_v0 {
  %6 = getelementptr inbounds nuw i8, ptr %3, i64 308
  %7 = load i8, ptr %6, align 4, !tbaa !3
  switch i8 %7, label %47 [
    i8 3, label %8
    i8 14, label %14
    i8 15, label %20
    i8 5, label %26
    i8 4, label %26
    i8 6, label %26
    i8 1, label %26
    i8 9, label %26
    i8 2, label %26
    i8 10, label %26
    i8 8, label %26
    i8 7, label %26
    i8 0, label %26
    i8 11, label %26
    i8 12, label %26
    i8 13, label %26
    i8 16, label %26
    i8 17, label %26
    i8 18, label %26
    i8 19, label %26
    i8 20, label %26
  ]

8:                                                ; preds = %5
  %9 = tail call noalias noundef dereferenceable_or_null(1632) ptr @_ZnwmRKSt9nothrow_t(i64 noundef 1632, ptr noundef nonnull align 1 dereferenceable(1) @_ZSt7nothrow) #25
  %10 = icmp eq ptr %9, null
  br i1 %10, label %49, label %11

11:                                               ; preds = %8
  invoke void @_ZN3zmq13req_session_tC1EPNS_11io_thread_tEbPNS_13socket_base_tERKNS_9options_tEPNS_9address_tE(ptr noundef nonnull align 8 dereferenceable(1632) %9, ptr noundef %0, i1 noundef zeroext %1, ptr noundef %2, ptr noundef nonnull align 8 dereferenceable(1336) %3, ptr noundef %4)
          to label %54 unwind label %12

12:                                               ; preds = %11
  %13 = landingpad { ptr, i32 }
          cleanup
  br label %55

14:                                               ; preds = %5
  %15 = tail call noalias noundef dereferenceable_or_null(1696) ptr @_ZnwmRKSt9nothrow_t(i64 noundef 1696, ptr noundef nonnull align 1 dereferenceable(1) @_ZSt7nothrow) #25
  %16 = icmp eq ptr %15, null
  br i1 %16, label %49, label %17

17:                                               ; preds = %14
  invoke void @_ZN3zmq15radio_session_tC1EPNS_11io_thread_tEbPNS_13socket_base_tERKNS_9options_tEPNS_9address_tE(ptr noundef nonnull align 8 dereferenceable(1696) %15, ptr noundef %0, i1 noundef zeroext %1, ptr noundef %2, ptr noundef nonnull align 8 dereferenceable(1336) %3, ptr noundef %4)
          to label %54 unwind label %18

18:                                               ; preds = %17
  %19 = landingpad { ptr, i32 }
          cleanup
  br label %55

20:                                               ; preds = %5
  %21 = tail call noalias noundef dereferenceable_or_null(1696) ptr @_ZnwmRKSt9nothrow_t(i64 noundef 1696, ptr noundef nonnull align 1 dereferenceable(1) @_ZSt7nothrow) #25
  %22 = icmp eq ptr %21, null
  br i1 %22, label %49, label %23

23:                                               ; preds = %20
  invoke void @_ZN3zmq14dish_session_tC1EPNS_11io_thread_tEbPNS_13socket_base_tERKNS_9options_tEPNS_9address_tE(ptr noundef nonnull align 8 dereferenceable(1696) %21, ptr noundef %0, i1 noundef zeroext %1, ptr noundef %2, ptr noundef nonnull align 8 dereferenceable(1336) %3, ptr noundef %4)
          to label %54 unwind label %24

24:                                               ; preds = %23
  %25 = landingpad { ptr, i32 }
          cleanup
  br label %55

26:                                               ; preds = %5, %5, %5, %5, %5, %5, %5, %5, %5, %5, %5, %5, %5, %5, %5, %5, %5, %5
  %27 = getelementptr inbounds nuw i8, ptr %3, i64 1232
  %28 = load i8, ptr %27, align 8, !tbaa !46, !range !47, !noundef !48
  %29 = trunc nuw i8 %28 to i1
  br i1 %29, label %30, label %41

30:                                               ; preds = %26
  %31 = getelementptr inbounds nuw i8, ptr %3, i64 1208
  %32 = getelementptr inbounds nuw i8, ptr %3, i64 1216
  %33 = load ptr, ptr %32, align 8, !tbaa !49
  %34 = load ptr, ptr %31, align 8, !tbaa !50
  %.not = icmp eq ptr %33, %34
  br i1 %.not, label %41, label %35

35:                                               ; preds = %30
  %36 = tail call noalias noundef dereferenceable_or_null(1632) ptr @_ZnwmRKSt9nothrow_t(i64 noundef 1632, ptr noundef nonnull align 1 dereferenceable(1) @_ZSt7nothrow) #25
  %37 = icmp eq ptr %36, null
  br i1 %37, label %49, label %38

38:                                               ; preds = %35
  invoke void @_ZN3zmq19hello_msg_session_tC1EPNS_11io_thread_tEbPNS_13socket_base_tERKNS_9options_tEPNS_9address_tE(ptr noundef nonnull align 8 dereferenceable(1632) %36, ptr noundef %0, i1 noundef zeroext %1, ptr noundef %2, ptr noundef nonnull align 8 dereferenceable(1336) %3, ptr noundef %4)
          to label %54 unwind label %39

39:                                               ; preds = %38
  %40 = landingpad { ptr, i32 }
          cleanup
  br label %55

41:                                               ; preds = %30, %26
  %42 = tail call noalias noundef dereferenceable_or_null(1624) ptr @_ZnwmRKSt9nothrow_t(i64 noundef 1624, ptr noundef nonnull align 1 dereferenceable(1) @_ZSt7nothrow) #25
  %43 = icmp eq ptr %42, null
  br i1 %43, label %49, label %44

44:                                               ; preds = %41
  invoke void @_ZN3zmq14session_base_tC1EPNS_11io_thread_tEbPNS_13socket_base_tERKNS_9options_tEPNS_9address_tE(ptr noundef nonnull align 8 dereferenceable(1624) %42, ptr noundef %0, i1 noundef zeroext %1, ptr noundef %2, ptr noundef nonnull align 8 dereferenceable(1336) %3, ptr noundef %4)
          to label %54 unwind label %45

45:                                               ; preds = %44
  %46 = landingpad { ptr, i32 }
          cleanup
  br label %55

47:                                               ; preds = %5
  %48 = tail call ptr @__errno_location() #26
  store i32 22, ptr %48, align 4, !tbaa !51
  br label %54

49:                                               ; preds = %8, %14, %20, %35, %41
  %50 = load ptr, ptr @stderr, align 8, !tbaa !52
  %51 = tail call i32 (ptr, ptr, ...) @fprintf(ptr noundef %50, ptr noundef nonnull @.str, ptr noundef nonnull @.str.1, i32 noundef 84) #27
  %52 = load ptr, ptr @stderr, align 8, !tbaa !52
  %53 = tail call i32 @fflush(ptr noundef %52)
  tail call void @_ZN3zmq9zmq_abortEPKc(ptr noundef nonnull @.str.2)
  br label %54

54:                                               ; preds = %11, %17, %23, %38, %44, %49, %47
  %.0 = phi ptr [ null, %47 ], [ null, %49 ], [ %9, %11 ], [ %15, %17 ], [ %21, %23 ], [ %36, %38 ], [ %42, %44 ]
  ret ptr %.0

55:                                               ; preds = %45, %39, %24, %18, %12
  %.sink = phi ptr [ %42, %45 ], [ %36, %39 ], [ %21, %24 ], [ %15, %18 ], [ %9, %12 ]
  %.pn = phi { ptr, i32 } [ %46, %45 ], [ %40, %39 ], [ %25, %24 ], [ %19, %18 ], [ %13, %12 ]
  tail call void @_ZdlPvRKSt9nothrow_t(ptr noundef nonnull %.sink, ptr noundef nonnull align 1 dereferenceable(1) @_ZSt7nothrow) #28
  resume { ptr, i32 } %.pn
}